target datalayout = "e-m:e-p270:32:32-p271:32:32-p272:64:64-i64:64-i128:128-f80:128-n8:16:32:64-S128"
target triple = "x86_64-pc-linux-gnu"

%struct._longobject = type { %struct._object, %struct._PyLongValue }
%struct._object = type { %union.anon, ptr }
%union.anon = type { i64 }
%struct._PyLongValue = type { i64, [1 x i32] }
%struct.anon = type { i32, i32 }
%struct.gaobject = type { %struct._object, ptr, ptr, ptr, ptr, i8, ptr }

@_Py_NotImplementedStruct = external global %struct._object, align 8
@_Py_TrueStruct = external global %struct._longobject, align 8
@_Py_FalseStruct = external global %struct._longobject, align 8

; Function Attrs: alwaysinline nounwind uwtable
define internal i32 @_Py_IsImmortal(ptr noundef %0) #4 {
  %2 = alloca ptr, align 8
  store ptr %0, ptr %2, align 8, !tbaa !4
  %3 = load ptr, ptr %2, align 8, !tbaa !4
  %4 = getelementptr inbounds nuw %struct._object, ptr %3, i32 0, i32 0
  %5 = getelementptr inbounds nuw %struct.anon, ptr %4, i32 0, i32 0
  %6 = load i32, ptr %5, align 8, !tbaa !17
  %7 = icmp slt i32 %6, 0
  %8 = zext i1 %7 to i32
  ret i32 %8
}

; Function Attrs: inlinehint nounwind uwtable
define internal ptr @_Py_TYPE(ptr noundef %0) #2 {
  %2 = alloca ptr, align 8
  store ptr %0, ptr %2, align 8, !tbaa !4
  %3 = load ptr, ptr %2, align 8, !tbaa !4
  %4 = getelementptr inbounds nuw %struct._object, ptr %3, i32 0, i32 1
  %5 = load ptr, ptr %4, align 8, !tbaa !29
  ret ptr %5
}

; Function Attrs: inlinehint nounwind uwtable
define internal i32 @Py_IS_TYPE(ptr noundef %0, ptr noundef %1) #2 {
  %3 = alloca ptr, align 8
  %4 = alloca ptr, align 8
  store ptr %0, ptr %3, align 8, !tbaa !4
  store ptr %1, ptr %4, align 8, !tbaa !18
  %5 = load ptr, ptr %3, align 8, !tbaa !4
  %6 = call ptr @_Py_TYPE(ptr noundef %5)
  %7 = load ptr, ptr %4, align 8, !tbaa !18
  %8 = icmp eq ptr %6, %7
  %9 = zext i1 %8 to i32
  ret i32 %9
}

; Function Attrs: alwaysinline nounwind uwtable
define internal void @Py_DECREF(ptr noundef %0) #4 {
  %2 = alloca ptr, align 8
  store ptr %0, ptr %2, align 8, !tbaa !4
  %3 = load ptr, ptr %2, align 8, !tbaa !4
  %4 = call i32 @_Py_IsImmortal(ptr noundef %3)
  %5 = icmp ne i32 %4, 0
  br i1 %5, label %6, label %7

6:                                                ; preds = %1
  br label %16

7:                                                ; preds = %1
  %8 = load ptr, ptr %2, align 8, !tbaa !4
  %9 = getelementptr inbounds nuw %struct._object, ptr %8, i32 0, i32 0
  %10 = getelementptr inbounds nuw %struct.anon, ptr %9, i32 0, i32 0
  %11 = load i32, ptr %10, align 8, !tbaa !17
  %12 = add i32 %11, -1
  store i32 %12, ptr %10, align 8, !tbaa !17
  %13 = icmp eq i32 %12, 0
  br i1 %13, label %14, label %16

14:                                               ; preds = %7
  %15 = load ptr, ptr %2, align 8, !tbaa !4
  call void @_Py_Dealloc(ptr noundef %15)
  br label %16

16:                                               ; preds = %6, %14, %7
  ret void
}

; Function Attrs: inlinehint nounwind uwtable
define internal i32 @PyObject_TypeCheck(ptr noundef %0, ptr noundef %1) #2 {
  %3 = alloca ptr, align 8
  %4 = alloca ptr, align 8
  store ptr %0, ptr %3, align 8, !tbaa !4
  store ptr %1, ptr %4, align 8, !tbaa !18
  %5 = load ptr, ptr %3, align 8, !tbaa !4
  %6 = load ptr, ptr %4, align 8, !tbaa !18
  %7 = call i32 @Py_IS_TYPE(ptr noundef %5, ptr noundef %6)
  %8 = icmp ne i32 %7, 0
  br i1 %8, label %15, label %9

9:                                                ; preds = %2
  %10 = load ptr, ptr %3, align 8, !tbaa !4
  %11 = call ptr @_Py_TYPE(ptr noundef %10)
  %12 = load ptr, ptr %4, align 8, !tbaa !18
  %13 = call i32 @PyType_IsSubtype(ptr noundef %11, ptr noundef %12)
  %14 = icmp ne i32 %13, 0
  br label %15

15:                                               ; preds = %9, %2
  %16 = phi i1 [ true, %2 ], [ %14, %9 ]
  %17 = zext i1 %16 to i32
  ret i32 %17
}

; Function Attrs: nounwind uwtable
define internal ptr @ga_richcompare(ptr noundef %0, ptr noundef %1, i32 noundef %2) #0 {
  %4 = alloca ptr, align 8
  %5 = alloca ptr, align 8
  %6 = alloca ptr, align 8
  %7 = alloca i32, align 4
  %8 = alloca ptr, align 8
  %9 = alloca i32, align 4
  %10 = alloca ptr, align 8
  %11 = alloca ptr, align 8
  %12 = alloca i32, align 4
  store ptr %0, ptr %5, align 8, !tbaa !4
  store ptr %1, ptr %6, align 8, !tbaa !4
  store i32 %2, ptr %7, align 4, !tbaa !11
  %13 = load ptr, ptr %6, align 8, !tbaa !4
  %14 = call i32 @PyObject_TypeCheck(ptr noundef %13, ptr noundef @Py_GenericAliasType)
  %15 = icmp ne i32 %14, 0
  br i1 %15, label %16, label %22

16:                                               ; preds = %3
  %17 = load i32, ptr %7, align 4, !tbaa !11
  %18 = icmp ne i32 %17, 2
  br i1 %18, label %19, label %23

19:                                               ; preds = %16
  %20 = load i32, ptr %7, align 4, !tbaa !11
  %21 = icmp ne i32 %20, 3
  br i1 %21, label %22, label %23

22:                                               ; preds = %19, %3
  store ptr @_Py_NotImplementedStruct, ptr %4, align 8
  br label %80

23:                                               ; preds = %19, %16
  %24 = load i32, ptr %7, align 4, !tbaa !11
  %25 = icmp eq i32 %24, 3
  br i1 %25, label %26, label %40

26:                                               ; preds = %23
  call void @llvm.lifetime.start.p0(i64 8, ptr %8) #5
  %27 = load ptr, ptr %5, align 8, !tbaa !4
  %28 = load ptr, ptr %6, align 8, !tbaa !4
  %29 = call ptr @ga_richcompare(ptr noundef %27, ptr noundef %28, i32 noundef 2)
  store ptr %29, ptr %8, align 8, !tbaa !4
  %30 = load ptr, ptr %8, align 8, !tbaa !4
  %31 = icmp eq ptr %30, null
  br i1 %31, label %32, label %33

32:                                               ; preds = %26
  store ptr null, ptr %4, align 8
  store i32 1, ptr %9, align 4
  br label %39

33:                                               ; preds = %26
  %34 = load ptr, ptr %8, align 8, !tbaa !4
  call void @Py_DECREF(ptr noundef %34)
  %35 = load ptr, ptr %8, align 8, !tbaa !4
  %36 = icmp eq ptr %35, @_Py_TrueStruct
  br i1 %36, label %37, label %38

37:                                               ; preds = %33
  store ptr @_Py_FalseStruct, ptr %4, align 8
  store i32 1, ptr %9, align 4
  br label %39

38:                                               ; preds = %33
  store ptr @_Py_TrueStruct, ptr %4, align 8
  store i32 1, ptr %9, align 4
  br label %39

39:                                               ; preds = %38, %37, %32
  call void @llvm.lifetime.end.p0(i64 8, ptr %8) #5
  br label %80

40:                                               ; preds = %23
  call void @llvm.lifetime.start.p0(i64 8, ptr %10) #5
  %41 = load ptr, ptr %5, align 8, !tbaa !4
  store ptr %41, ptr %10, align 8, !tbaa !16
  call void @llvm.lifetime.start.p0(i64 8, ptr %11) #5
  %42 = load ptr, ptr %6, align 8, !tbaa !4
  store ptr %42, ptr %11, align 8, !tbaa !16
  %43 = load ptr, ptr %10, align 8, !tbaa !16
  %44 = getelementptr inbounds nuw %struct.gaobject, ptr %43, i32 0, i32 5
  %45 = load i8, ptr %44, align 8, !tbaa !45, !range !51, !noundef !52
  %46 = trunc i8 %45 to i1
  %47 = zext i1 %46 to i32
  %48 = load ptr, ptr %11, align 8, !tbaa !16
  %49 = getelementptr inbounds nuw %struct.gaobject, ptr %48, i32 0, i32 5
  %50 = load i8, ptr %49, align 8, !tbaa !45, !range !51, !noundef !52
  %51 = trunc i8 %50 to i1
  %52 = zext i1 %51 to i32
  %53 = icmp ne i32 %47, %52
  br i1 %53, label %54, label %55

54:                                               ; preds = %40
  store ptr @_Py_FalseStruct, ptr %4, align 8
  store i32 1, ptr %9, align 4
  br label %79

55:                                               ; preds = %40
  call void @llvm.lifetime.start.p0(i64 4, ptr %12) #5
  %56 = load ptr, ptr %10, align 8, !tbaa !16
  %57 = getelementptr inbounds nuw %struct.gaobject, ptr %56, i32 0, i32 1
  %58 = load ptr, ptr %57, align 8, !tbaa !41
  %59 = load ptr, ptr %11, align 8, !tbaa !16
  %60 = getelementptr inbounds nuw %struct.gaobject, ptr %59, i32 0, i32 1
  %61 = load ptr, ptr %60, align 8, !tbaa !41
  %62 = call i32 @PyObject_RichCompareBool(ptr noundef %58, ptr noundef %61, i32 noundef 2)
  store i32 %62, ptr %12, align 4, !tbaa !11
  %63 = load i32, ptr %12, align 4, !tbaa !11
  %64 = icmp slt i32 %63, 0
  br i1 %64, label %65, label %66

65:                                               ; preds = %55
  store ptr null, ptr %4, align 8
  store i32 1, ptr %9, align 4
  br label %78

66:                                               ; preds = %55
  %67 = load i32, ptr %12, align 4, !tbaa !11
  %68 = icmp ne i32 %67, 0
  br i1 %68, label %70, label %69

69:                                               ; preds = %66
  store ptr @_Py_FalseStruct, ptr %4, align 8
  store i32 1, ptr %9, align 4
  br label %78

70:                                               ; preds = %66
  %71 = load ptr, ptr %10, align 8, !tbaa !16
  %72 = getelementptr inbounds nuw %struct.gaobject, ptr %71, i32 0, i32 2
  %73 = load ptr, ptr %72, align 8, !tbaa !44
  %74 = load ptr, ptr %11, align 8, !tbaa !16
  %75 = getelementptr inbounds nuw %struct.gaobject, ptr %74, i32 0, i32 2
  %76 = load ptr, ptr %75, align 8, !tbaa !44
  %77 = call ptr @PyObject_RichCompare(ptr noundef %73, ptr noundef %76, i32 noundef 2)
  store ptr %77, ptr %4, align 8
  store i32 1, ptr %9, align 4
  br label %78

78:                                               ; preds = %70, %69, %65
  call void @llvm.lifetime.end.p0(i64 4, ptr %12) #5
  br label %79

79:                                               ; preds = %78, %54
  call void @llvm.lifetime.end.p0(i64 8, ptr %11) #5
  call void @llvm.lifetime.end.p0(i64 8, ptr %10) #5
  br label %80

80:                                               ; preds = %79, %39, %22
  %81 = load ptr, ptr %4, align 8
  ret ptr %81
}