; Function Attrs: nounwind uwtable
define internal ptr @ga_richcompare(ptr noundef readonly captures(none) %0, ptr noundef readonly captures(none) %1, i32 noundef %2) #0 {
  %4 = getelementptr i8, ptr %1, i64 8
  %.val = load ptr, ptr %4, align 8, !tbaa !14
  %.not.i25 = icmp eq ptr %.val, @Py_GenericAliasType
  br i1 %.not.i25, label %PyObject_TypeCheck.exit, label %5

5:                                                ; preds = %3
  %6 = tail call i32 @PyType_IsSubtype(ptr noundef %.val, ptr noundef nonnull @Py_GenericAliasType) #5
  %.not32 = icmp eq i32 %6, 0
  br label %PyObject_TypeCheck.exit

PyObject_TypeCheck.exit:                          ; preds = %3, %5
  %.not = phi i1 [ false, %3 ], [ %.not32, %5 ]
  %7 = add i32 %2, -4
  %or.cond = icmp ult i32 %7, -2
  %or.cond24 = or i1 %or.cond, %.not
  br i1 %or.cond24, label %ga_richcompare.exit.thread30, label %8

8:                                                ; preds = %PyObject_TypeCheck.exit
  %9 = icmp eq i32 %2, 3
  br i1 %9, label %10, label %36

10:                                               ; preds = %8
  %.val.i = load ptr, ptr %4, align 8, !tbaa !14
  %.not.i25.i = icmp eq ptr %.val.i, @Py_GenericAliasType
  br i1 %.not.i25.i, label %PyObject_TypeCheck.exit.i.thread, label %PyObject_TypeCheck.exit.i

PyObject_TypeCheck.exit.i:                        ; preds = %10
  %11 = tail call i32 @PyType_IsSubtype(ptr noundef %.val.i, ptr noundef nonnull @Py_GenericAliasType) #5
  %.not33 = icmp eq i32 %11, 0
  br i1 %.not33, label %ga_richcompare.exit.thread, label %PyObject_TypeCheck.exit.i.thread

PyObject_TypeCheck.exit.i.thread:                 ; preds = %10, %PyObject_TypeCheck.exit.i
  %12 = getelementptr inbounds nuw i8, ptr %0, i64 48
  %13 = load i8, ptr %12, align 8, !tbaa !28, !range !31, !noundef !32
  %14 = getelementptr inbounds nuw i8, ptr %1, i64 48
  %15 = load i8, ptr %14, align 8, !tbaa !28, !range !31, !noundef !32
  %.not22.i = icmp eq i8 %13, %15
  br i1 %.not22.i, label %16, label %ga_richcompare.exit.thread

16:                                               ; preds = %PyObject_TypeCheck.exit.i.thread
  %17 = getelementptr inbounds nuw i8, ptr %0, i64 16
  %18 = load ptr, ptr %17, align 8, !tbaa !33
  %19 = getelementptr inbounds nuw i8, ptr %1, i64 16
  %20 = load ptr, ptr %19, align 8, !tbaa !33
  %21 = tail call i32 @PyObject_RichCompareBool(ptr noundef %18, ptr noundef %20, i32 noundef 2) #5
  %22 = icmp slt i32 %21, 0
  br i1 %22, label %ga_richcompare.exit.thread30, label %23

23:                                               ; preds = %16
  %.not23.i = icmp eq i32 %21, 0
  br i1 %.not23.i, label %ga_richcompare.exit.thread, label %ga_richcompare.exit

ga_richcompare.exit:                              ; preds = %23
  %24 = getelementptr inbounds nuw i8, ptr %0, i64 24
  %25 = load ptr, ptr %24, align 8, !tbaa !34
  %26 = getelementptr inbounds nuw i8, ptr %1, i64 24
  %27 = load ptr, ptr %26, align 8, !tbaa !34
  %28 = tail call ptr @PyObject_RichCompare(ptr noundef %25, ptr noundef %27, i32 noundef 2) #5
  %29 = icmp eq ptr %28, null
  br i1 %29, label %ga_richcompare.exit.thread30, label %ga_richcompare.exit.thread

ga_richcompare.exit.thread:                       ; preds = %23, %PyObject_TypeCheck.exit.i.thread, %PyObject_TypeCheck.exit.i, %ga_richcompare.exit
  %.0.i29 = phi ptr [ %28, %ga_richcompare.exit ], [ @_Py_FalseStruct, %23 ], [ @_Py_FalseStruct, %PyObject_TypeCheck.exit.i.thread ], [ @_Py_NotImplementedStruct, %PyObject_TypeCheck.exit.i ]
  %30 = load i32, ptr %.0.i29, align 8, !tbaa !23
  %.not.i = icmp sgt i32 %30, -1
  br i1 %.not.i, label %31, label %Py_DECREF.exit

31:                                               ; preds = %ga_richcompare.exit.thread
  %32 = add nsw i32 %30, -1
  store i32 %32, ptr %.0.i29, align 8, !tbaa !23
  %33 = icmp eq i32 %32, 0
  br i1 %33, label %34, label %Py_DECREF.exit

34:                                               ; preds = %31
  tail call void @_Py_Dealloc(ptr noundef nonnull %.0.i29) #5
  br label %Py_DECREF.exit

Py_DECREF.exit:                                   ; preds = %ga_richcompare.exit.thread, %31, %34
  %35 = icmp eq ptr %.0.i29, @_Py_TrueStruct
  %_Py_FalseStruct._Py_TrueStruct = select i1 %35, ptr @_Py_FalseStruct, ptr @_Py_TrueStruct
  br label %ga_richcompare.exit.thread30

36:                                               ; preds = %8
  %37 = getelementptr inbounds nuw i8, ptr %0, i64 48
  %38 = load i8, ptr %37, align 8, !tbaa !28, !range !31, !noundef !32
  %39 = getelementptr inbounds nuw i8, ptr %1, i64 48
  %40 = load i8, ptr %39, align 8, !tbaa !28, !range !31, !noundef !32
  %.not22 = icmp eq i8 %38, %40
  br i1 %.not22, label %41, label %ga_richcompare.exit.thread30

41:                                               ; preds = %36
  %42 = getelementptr inbounds nuw i8, ptr %0, i64 16
  %43 = load ptr, ptr %42, align 8, !tbaa !33
  %44 = getelementptr inbounds nuw i8, ptr %1, i64 16
  %45 = load ptr, ptr %44, align 8, !tbaa !33
  %46 = tail call i32 @PyObject_RichCompareBool(ptr noundef %43, ptr noundef %45, i32 noundef 2) #5
  %47 = icmp slt i32 %46, 0
  br i1 %47, label %ga_richcompare.exit.thread30, label %48

48:                                               ; preds = %41
  %.not23 = icmp eq i32 %46, 0
  br i1 %.not23, label %ga_richcompare.exit.thread30, label %49

49:                                               ; preds = %48
  %50 = getelementptr inbounds nuw i8, ptr %0, i64 24
  %51 = load ptr, ptr %50, align 8, !tbaa !34
  %52 = getelementptr inbounds nuw i8, ptr %1, i64 24
  %53 = load ptr, ptr %52, align 8, !tbaa !34
  %54 = tail call ptr @PyObject_RichCompare(ptr noundef %51, ptr noundef %53, i32 noundef 2) #5
  br label %ga_richcompare.exit.thread30

ga_richcompare.exit.thread30:                     ; preds = %16, %36, %48, %41, %49, %ga_richcompare.exit, %Py_DECREF.exit, %PyObject_TypeCheck.exit
  %.0 = phi ptr [ @_Py_NotImplementedStruct, %PyObject_TypeCheck.exit ], [ null, %ga_richcompare.exit ], [ %_Py_FalseStruct._Py_TrueStruct, %Py_DECREF.exit ], [ @_Py_FalseStruct, %36 ], [ %54, %49 ], [ null, %41 ], [ @_Py_FalseStruct, %48 ], [ null, %16 ]
  ret ptr %.0
}